target datalayout = "e-m:e-p270:32:32-p271:32:32-p272:64:64-i64:64-i128:128-f80:128-n8:16:32:64-S128"
target triple = "x86_64-unknown-linux-gnu"

%struct.xa_state = type { ptr, i64, i8, i8, i8, i8, ptr, ptr, ptr, ptr }

; Function Attrs: fn_ret_thunk_extern nofree norecurse nounwind null_pointer_is_valid
define dso_local ptr @xas_load(ptr nocapture noundef %0) #0 align 16 {
  %2 = getelementptr inbounds i8, ptr %0, i64 24
  %3 = load ptr, ptr %2, align 8
  %4 = ptrtoint ptr %3 to i64
  %5 = and i64 %4, 3
  %6 = icmp eq i64 %5, 0
  br i1 %6, label %7, label %33

7:                                                ; preds = %1
  %8 = icmp eq ptr %3, null
  br i1 %8, label %9, label %13

9:                                                ; preds = %7
  %10 = load ptr, ptr %0, align 8
  %11 = getelementptr inbounds i8, ptr %10, i64 8
  %12 = load volatile ptr, ptr %11, align 8
  br label %63

13:                                               ; preds = %7
  %14 = getelementptr inbounds i8, ptr %0, i64 8
  %15 = load i64, ptr %14, align 8
  %16 = load i8, ptr %3, align 8
  %17 = zext nneg i8 %16 to i64
  %18 = lshr i64 %15, %17
  %19 = and i64 %18, 63
  %20 = getelementptr inbounds i8, ptr %3, i64 40
  %21 = getelementptr [64 x ptr], ptr %20, i64 0, i64 %19
  %22 = load volatile ptr, ptr %21, align 8
  %23 = ptrtoint ptr %22 to i64
  %24 = and i64 %23, 3
  %25 = icmp eq i64 %24, 2
  %26 = icmp ult ptr %22, inttoptr (i64 254 to ptr)
  %27 = and i1 %26, %25
  br i1 %27, label %28, label %63

28:                                               ; preds = %13
  %29 = lshr i64 %23, 2
  %30 = and i64 %29, 255
  %31 = getelementptr [64 x ptr], ptr %20, i64 0, i64 %30
  %32 = load volatile ptr, ptr %31, align 8
  br label %63

33:                                               ; preds = %1
  %34 = icmp ne i64 %5, 2
  %35 = icmp ult ptr %3, inttoptr (i64 -16378 to ptr)
  %36 = or i1 %35, %34
  %37 = and i64 %4, 17179869180
  %38 = icmp eq i64 %37, 0
  %39 = or i1 %38, %36
  br i1 %39, label %40, label %63

40:                                               ; preds = %33
  %41 = load ptr, ptr %0, align 8
  %42 = getelementptr inbounds i8, ptr %41, i64 8
  %43 = load volatile ptr, ptr %42, align 8
  %44 = ptrtoint ptr %43 to i64
  %45 = and i64 %44, 3
  %46 = icmp eq i64 %45, 2
  %47 = icmp ugt ptr %43, inttoptr (i64 4096 to ptr)
  %48 = and i1 %47, %46
  %49 = getelementptr inbounds i8, ptr %0, i64 8
  %50 = load i64, ptr %49, align 8
  br i1 %48, label %54, label %51

51:                                               ; preds = %40
  %52 = icmp eq i64 %50, 0
  br i1 %52, label %62, label %53

53:                                               ; preds = %51
  store ptr inttoptr (i64 1 to ptr), ptr %2, align 8
  br label %63

54:                                               ; preds = %40
  %55 = add nsw i64 %44, -2
  %56 = inttoptr i64 %55 to ptr
  %57 = load i8, ptr %56, align 8
  %58 = zext nneg i8 %57 to i64
  %59 = lshr i64 %50, %58
  %60 = icmp ugt i64 %59, 63
  br i1 %60, label %61, label %62

61:                                               ; preds = %54
  store ptr inttoptr (i64 1 to ptr), ptr %2, align 8
  br label %63

62:                                               ; preds = %54, %51
  store ptr null, ptr %2, align 8
  br label %63

63:                                               ; preds = %62, %61, %53, %33, %28, %13, %9
  %64 = phi ptr [ null, %61 ], [ %43, %62 ], [ null, %53 ], [ null, %33 ], [ %32, %28 ], [ %12, %9 ], [ %22, %13 ]
  %65 = getelementptr inbounds i8, ptr %0, i64 16
  %66 = getelementptr inbounds i8, ptr %0, i64 8
  %67 = getelementptr inbounds i8, ptr %0, i64 18
  br label %68

68:                                               ; preds = %127, %63
  %69 = phi ptr [ %64, %63 ], [ %128, %127 ]
  %70 = ptrtoint ptr %69 to i64
  %71 = and i64 %70, 3
  %72 = icmp eq i64 %71, 2
  %73 = icmp ugt ptr %69, inttoptr (i64 4096 to ptr)
  %74 = and i1 %73, %72
  br i1 %74, label %75, label %131

75:                                               ; preds = %68
  %76 = add nsw i64 %70, -2
  %77 = inttoptr i64 %76 to ptr
  %78 = load i8, ptr %65, align 8
  %79 = load i8, ptr %77, align 8
  %80 = icmp ugt i8 %78, %79
  br i1 %80, label %127, label %81

81:                                               ; preds = %75
  %82 = load i64, ptr %66, align 8
  %83 = zext nneg i8 %79 to i64
  %84 = lshr i64 %82, %83
  %85 = trunc i64 %84 to i8
  %86 = and i8 %85, 63
  %87 = getelementptr inbounds i8, ptr %77, i64 40
  %88 = and i64 %84, 63
  %89 = getelementptr [64 x ptr], ptr %87, i64 0, i64 %88
  %90 = load volatile ptr, ptr %89, align 8
  store ptr %77, ptr %2, align 8
  %91 = ptrtoint ptr %90 to i64
  %92 = and i64 %91, 3
  %93 = icmp eq i64 %92, 2
  %94 = icmp ult ptr %90, inttoptr (i64 254 to ptr)
  %95 = and i1 %94, %93
  br i1 %95, label %96, label %121

96:                                               ; preds = %81
  %97 = load i8, ptr %77, align 8
  %98 = icmp eq i8 %97, 0
  br label %99

99:                                               ; preds = %112, %96
  %100 = phi i64 [ %91, %96 ], [ %114, %112 ]
  %101 = lshr i64 %100, 2
  %102 = and i64 %101, 4294967295
  %103 = getelementptr [64 x ptr], ptr %87, i64 0, i64 %102
  %104 = load volatile ptr, ptr %103, align 8
  br i1 %98, label %112, label %105

105:                                              ; preds = %99
  %106 = ptrtoint ptr %104 to i64
  %107 = and i64 %106, 3
  %108 = icmp eq i64 %107, 2
  %109 = icmp ugt ptr %104, inttoptr (i64 4096 to ptr)
  %110 = and i1 %109, %108
  %111 = select i1 %110, ptr inttoptr (i64 1026 to ptr), ptr %104
  br label %112

112:                                              ; preds = %105, %99
  %113 = phi ptr [ %104, %99 ], [ %111, %105 ]
  %114 = ptrtoint ptr %113 to i64
  %115 = and i64 %114, 3
  %116 = icmp eq i64 %115, 2
  %117 = icmp ult ptr %113, inttoptr (i64 254 to ptr)
  %118 = and i1 %117, %116
  br i1 %118, label %99, label %119, !llvm.loop !5

119:                                              ; preds = %112
  %120 = trunc i64 %101 to i8
  br label %121

121:                                              ; preds = %119, %81
  %122 = phi i8 [ %120, %119 ], [ %86, %81 ]
  %123 = phi ptr [ %113, %119 ], [ %90, %81 ]
  store i8 %122, ptr %67, align 2
  %124 = load i8, ptr %77, align 8
  %125 = icmp eq i8 %124, 0
  %126 = select i1 %125, i32 3, i32 0
  br label %127

127:                                              ; preds = %121, %75
  %128 = phi ptr [ %69, %75 ], [ %123, %121 ]
  %129 = phi i32 [ 3, %75 ], [ %126, %121 ]
  %130 = icmp eq i32 %129, 0
  br i1 %130, label %68, label %131

131:                                              ; preds = %127, %68
  %132 = phi ptr [ %128, %127 ], [ %69, %68 ]
  ret ptr %132
}

; Function Attrs: fn_ret_thunk_extern nounwind null_pointer_is_valid
define dso_local ptr @xa_load(ptr noundef %0, i64 noundef %1) #2 align 16 {
  %3 = alloca %struct.xa_state, align 8
  call void @llvm.lifetime.start.p0(i64 56, ptr nonnull %3) #7
  call void @llvm.memset.p0.i64(ptr noundef nonnull align 8 dereferenceable(56) %3, i8 0, i64 56, i1 false), !annotation !54
  store ptr %0, ptr %3, align 8
  %4 = getelementptr inbounds i8, ptr %3, i64 8
  store i64 %1, ptr %4, align 8
  %5 = getelementptr inbounds i8, ptr %3, i64 16
  %6 = getelementptr inbounds i8, ptr %3, i64 24
  store i32 0, ptr %5, align 8
  store ptr inttoptr (i64 3 to ptr), ptr %6, align 8
  %7 = getelementptr inbounds i8, ptr %3, i64 32
  call void @llvm.memset.p0.i64(ptr noundef align 8 dereferenceable(24) %7, i8 0, i64 24, i1 false)
  tail call void @__rcu_read_lock() #7
  br label %8

8:                                                ; preds = %13, %2
  %9 = call ptr @xas_load(ptr noundef nonnull %3)
  %10 = icmp eq ptr %9, inttoptr (i64 1030 to ptr)
  %11 = select i1 %10, ptr null, ptr %9
  %12 = ptrtoint ptr %11 to i64
  switch i64 %12, label %15 [
    i64 1030, label %13
    i64 1026, label %14
  ]

13:                                               ; preds = %14, %8
  br label %8

14:                                               ; preds = %8
  store ptr inttoptr (i64 3 to ptr), ptr %6, align 8
  br label %13

15:                                               ; preds = %8
  tail call void @__rcu_read_unlock() #7
  call void @llvm.lifetime.end.p0(i64 56, ptr nonnull %3) #7
  ret ptr %11
}