; Function Attrs: fn_ret_thunk_extern nounwind null_pointer_is_valid
define dso_local ptr @xa_load(ptr noundef %0, i64 noundef %1) #2 align 16 {
  tail call void @__rcu_read_lock() #8
  %3 = getelementptr inbounds i8, ptr %0, i64 8
  %4 = icmp eq i64 %1, 0
  br label %5

5:                                                ; preds = %.backedge, %2
  %.sroa.134.0 = phi ptr [ inttoptr (i64 3 to ptr), %2 ], [ %.sroa.134.0.be, %.backedge ]
  %6 = ptrtoint ptr %.sroa.134.0 to i64
  %7 = and i64 %6, 3
  %8 = icmp eq i64 %7, 0
  br i1 %8, label %9, label %28

9:                                                ; preds = %5
  %10 = icmp eq ptr %.sroa.134.0, null
  br i1 %10, label %.sink.split, label %11

11:                                               ; preds = %9
  %12 = load i8, ptr %.sroa.134.0, align 8
  %13 = zext nneg i8 %12 to i64
  %14 = lshr i64 %1, %13
  %15 = and i64 %14, 63
  %16 = getelementptr inbounds i8, ptr %.sroa.134.0, i64 40
  %17 = getelementptr [64 x ptr], ptr %16, i64 0, i64 %15
  %18 = load volatile ptr, ptr %17, align 8
  %19 = ptrtoint ptr %18 to i64
  %20 = and i64 %19, 3
  %21 = icmp eq i64 %20, 2
  %22 = icmp ult ptr %18, inttoptr (i64 254 to ptr)
  %23 = and i1 %22, %21
  br i1 %23, label %24, label %51

24:                                               ; preds = %11
  %25 = lshr i64 %19, 2
  %26 = and i64 %25, 255
  %27 = getelementptr [64 x ptr], ptr %16, i64 0, i64 %26
  br label %.sink.split

28:                                               ; preds = %5
  %29 = icmp ne i64 %7, 2
  %30 = icmp ult ptr %.sroa.134.0, inttoptr (i64 -16378 to ptr)
  %31 = or i1 %30, %29
  %32 = and i64 %6, 17179869180
  %33 = icmp eq i64 %32, 0
  %34 = or i1 %33, %31
  br i1 %34, label %35, label %xas_load.exit

35:                                               ; preds = %28
  %36 = load volatile ptr, ptr %3, align 8
  %37 = ptrtoint ptr %36 to i64
  %38 = and i64 %37, 3
  %39 = icmp eq i64 %38, 2
  %40 = icmp ugt ptr %36, inttoptr (i64 4096 to ptr)
  %41 = and i1 %40, %39
  br i1 %41, label %43, label %42

42:                                               ; preds = %35
  br i1 %4, label %51, label %xas_load.exit

43:                                               ; preds = %35
  %44 = add nsw i64 %37, -2
  %45 = inttoptr i64 %44 to ptr
  %46 = load i8, ptr %45, align 8
  %47 = zext nneg i8 %46 to i64
  %48 = lshr i64 %1, %47
  %49 = icmp ugt i64 %48, 63
  br i1 %49, label %xas_load.exit, label %51

.sink.split:                                      ; preds = %9, %24
  %.sink = phi ptr [ %27, %24 ], [ %3, %9 ]
  %.sroa.134.1.ph = phi ptr [ %.sroa.134.0, %24 ], [ null, %9 ]
  %50 = load volatile ptr, ptr %.sink, align 8
  br label %51

51:                                               ; preds = %.sink.split, %42, %43, %11
  %.sroa.134.1 = phi ptr [ %.sroa.134.0, %11 ], [ null, %43 ], [ null, %42 ], [ %.sroa.134.1.ph, %.sink.split ]
  %52 = phi ptr [ %18, %11 ], [ %36, %43 ], [ %36, %42 ], [ %50, %.sink.split ]
  %53 = ptrtoint ptr %52 to i64
  %54 = and i64 %53, 3
  %55 = icmp eq i64 %54, 2
  %56 = icmp ugt ptr %52, inttoptr (i64 4096 to ptr)
  %57 = and i1 %56, %55
  br i1 %57, label %.lr.ph, label %xas_load.exit

58:                                               ; preds = %.split6.us.i
  %59 = ptrtoint ptr %107 to i64
  %60 = and i64 %59, 3
  %61 = icmp eq i64 %60, 2
  %62 = icmp ugt ptr %107, inttoptr (i64 4096 to ptr)
  %63 = and i1 %62, %61
  br i1 %63, label %.lr.ph, label %xas_load.exit

.lr.ph:                                           ; preds = %51, %58
  %64 = phi i64 [ %59, %58 ], [ %53, %51 ]
  %65 = add nsw i64 %64, -2
  %66 = inttoptr i64 %65 to ptr
  %67 = load i8, ptr %66, align 8
  %68 = zext nneg i8 %67 to i64
  %69 = lshr i64 %1, %68
  %70 = getelementptr inbounds i8, ptr %66, i64 40
  %71 = and i64 %69, 63
  %72 = getelementptr [64 x ptr], ptr %70, i64 0, i64 %71
  %73 = load volatile ptr, ptr %72, align 8
  %74 = ptrtoint ptr %73 to i64
  %75 = and i64 %74, 3
  %76 = icmp eq i64 %75, 2
  %77 = icmp ult ptr %73, inttoptr (i64 254 to ptr)
  %78 = and i1 %77, %76
  br i1 %78, label %79, label %.split6.us.i

79:                                               ; preds = %.lr.ph
  %80 = icmp eq i8 %67, 0
  br i1 %80, label %.split.us.i, label %.split.i

.split.us.i:                                      ; preds = %79, %.split.us.i
  %81 = phi i64 [ %86, %.split.us.i ], [ %74, %79 ]
  %82 = lshr i64 %81, 2
  %83 = and i64 %82, 4294967295
  %84 = getelementptr [64 x ptr], ptr %70, i64 0, i64 %83
  %85 = load volatile ptr, ptr %84, align 8
  %86 = ptrtoint ptr %85 to i64
  %87 = and i64 %86, 3
  %88 = icmp eq i64 %87, 2
  %89 = icmp ult ptr %85, inttoptr (i64 254 to ptr)
  %90 = and i1 %89, %88
  br i1 %90, label %.split.us.i, label %.split6.us.i, !llvm.loop !5

.split.i:                                         ; preds = %79, %.split.i
  %91 = phi i64 [ %102, %.split.i ], [ %74, %79 ]
  %92 = lshr i64 %91, 2
  %93 = and i64 %92, 4294967295
  %94 = getelementptr [64 x ptr], ptr %70, i64 0, i64 %93
  %95 = load volatile ptr, ptr %94, align 8
  %96 = ptrtoint ptr %95 to i64
  %97 = and i64 %96, 3
  %98 = icmp eq i64 %97, 2
  %99 = icmp ugt ptr %95, inttoptr (i64 4096 to ptr)
  %100 = and i1 %99, %98
  %101 = select i1 %100, ptr inttoptr (i64 1026 to ptr), ptr %95
  %102 = ptrtoint ptr %101 to i64
  %103 = and i64 %102, 3
  %104 = icmp eq i64 %103, 2
  %105 = icmp ult ptr %101, inttoptr (i64 254 to ptr)
  %106 = and i1 %105, %104
  br i1 %106, label %.split.i, label %.split6.us.i, !llvm.loop !5

.split6.us.i:                                     ; preds = %.split.i, %.split.us.i, %.lr.ph
  %107 = phi ptr [ %73, %.lr.ph ], [ %85, %.split.us.i ], [ %101, %.split.i ]
  %108 = icmp eq i8 %67, 0
  br i1 %108, label %xas_load.exit, label %58

xas_load.exit:                                    ; preds = %.split6.us.i, %58, %43, %42, %28, %51
  %.sroa.134.3 = phi ptr [ %.sroa.134.1, %51 ], [ inttoptr (i64 1 to ptr), %43 ], [ inttoptr (i64 1 to ptr), %42 ], [ %.sroa.134.0, %28 ], [ %66, %58 ], [ %66, %.split6.us.i ]
  %109 = phi ptr [ %52, %51 ], [ null, %43 ], [ null, %42 ], [ null, %28 ], [ %107, %58 ], [ %107, %.split6.us.i ]
  %110 = icmp eq ptr %109, inttoptr (i64 1030 to ptr)
  %111 = select i1 %110, ptr null, ptr %109
  %112 = ptrtoint ptr %111 to i64
  switch i64 %112, label %114 [
    i64 1030, label %.backedge
    i64 1026, label %113
  ]

113:                                              ; preds = %xas_load.exit
  br label %.backedge

.backedge:                                        ; preds = %113, %xas_load.exit
  %.sroa.134.0.be = phi ptr [ inttoptr (i64 3 to ptr), %113 ], [ %.sroa.134.3, %xas_load.exit ]
  br label %5

114:                                              ; preds = %xas_load.exit
  tail call void @__rcu_read_unlock() #8
  ret ptr %111
}